; Function Attrs: null_pointer_is_valid sspstrong uwtable
define hidden void @rtpstream_id_copy(ptr noundef readonly captures(none) %0, ptr noundef writeonly captures(none) initializes((0, 26), (32, 58), (60, 64)) %1) local_unnamed_addr #0 {
  %3 = load i32, ptr %0, align 8
  %4 = getelementptr inbounds nuw i8, ptr %0, i64 4
  %5 = load i32, ptr %4, align 4
  %6 = getelementptr inbounds nuw i8, ptr %0, i64 8
  %7 = load ptr, ptr %6, align 8
  tail call void @llvm.memset.p0.i64(ptr noundef align 8 dereferenceable(24) %1, i8 0, i64 24, i1 false)
  store i32 %3, ptr %1, align 8
  %8 = icmp eq i32 %5, 0
  br i1 %8, label %copy_address.exit, label %9

9:                                                ; preds = %2
  %10 = sext i32 %5 to i64
  %11 = tail call ptr @wmem_memdup(ptr noundef null, ptr noundef %7, i64 noundef %10) #8
  %12 = getelementptr inbounds nuw i8, ptr %1, i64 16
  store ptr %11, ptr %12, align 8
  %13 = getelementptr inbounds nuw i8, ptr %1, i64 8
  store ptr %11, ptr %13, align 8
  %14 = getelementptr inbounds nuw i8, ptr %1, i64 4
  store i32 %5, ptr %14, align 4
  br label %copy_address.exit

copy_address.exit:                                ; preds = %2, %9
  %15 = getelementptr inbounds nuw i8, ptr %0, i64 24
  %16 = load i16, ptr %15, align 8
  %17 = getelementptr inbounds nuw i8, ptr %1, i64 24
  store i16 %16, ptr %17, align 8
  %18 = getelementptr inbounds nuw i8, ptr %1, i64 32
  %19 = getelementptr inbounds nuw i8, ptr %0, i64 32
  %20 = load i32, ptr %19, align 8
  %21 = getelementptr inbounds nuw i8, ptr %0, i64 36
  %22 = load i32, ptr %21, align 4
  %23 = getelementptr inbounds nuw i8, ptr %0, i64 40
  %24 = load ptr, ptr %23, align 8
  tail call void @llvm.memset.p0.i64(ptr noundef nonnull align 8 dereferenceable(24) %18, i8 0, i64 24, i1 false)
  store i32 %20, ptr %18, align 8
  %25 = icmp eq i32 %22, 0
  br i1 %25, label %copy_address.exit10, label %26

26:                                               ; preds = %copy_address.exit
  %27 = sext i32 %22 to i64
  %28 = tail call ptr @wmem_memdup(ptr noundef null, ptr noundef %24, i64 noundef %27) #8
  %29 = getelementptr inbounds nuw i8, ptr %1, i64 48
  store ptr %28, ptr %29, align 8
  %30 = getelementptr inbounds nuw i8, ptr %1, i64 40
  store ptr %28, ptr %30, align 8
  %31 = getelementptr inbounds nuw i8, ptr %1, i64 36
  store i32 %22, ptr %31, align 4
  br label %copy_address.exit10

copy_address.exit10:                              ; preds = %copy_address.exit, %26
  %32 = getelementptr inbounds nuw i8, ptr %0, i64 56
  %33 = load i16, ptr %32, align 8
  %34 = getelementptr inbounds nuw i8, ptr %1, i64 56
  store i16 %33, ptr %34, align 8
  %35 = getelementptr inbounds nuw i8, ptr %0, i64 60
  %36 = load i32, ptr %35, align 4
  %37 = getelementptr inbounds nuw i8, ptr %1, i64 60
  store i32 %36, ptr %37, align 4
  ret void
}